target datalayout = "e-m:e-p270:32:32-p271:32:32-p272:64:64-i64:64-i128:128-f80:128-n8:16:32:64-S128"
target triple = "x86_64-pc-linux-gnu"

@stderr = external global ptr, align 8
@.str.8 = private unnamed_addr constant [6 x i8] c"\\%03o\00", align 1

; Function Attrs: inlinehint nounwind uwtable
define internal zeroext i1 @gv_isspace(i32 noundef %0) #2 {
  %2 = alloca i1, align 1
  %3 = alloca i32, align 4
  store i32 %0, ptr %3, align 4, !tbaa !7
  %4 = load i32, ptr %3, align 4, !tbaa !7
  %5 = icmp eq i32 %4, 9
  br i1 %5, label %6, label %7

6:                                                ; preds = %1
  store i1 true, ptr %2, align 1
  br label %28

7:                                                ; preds = %1
  %8 = load i32, ptr %3, align 4, !tbaa !7
  %9 = icmp eq i32 %8, 10
  br i1 %9, label %10, label %11

10:                                               ; preds = %7
  store i1 true, ptr %2, align 1
  br label %28

11:                                               ; preds = %7
  %12 = load i32, ptr %3, align 4, !tbaa !7
  %13 = icmp eq i32 %12, 11
  br i1 %13, label %14, label %15

14:                                               ; preds = %11
  store i1 true, ptr %2, align 1
  br label %28

15:                                               ; preds = %11
  %16 = load i32, ptr %3, align 4, !tbaa !7
  %17 = icmp eq i32 %16, 12
  br i1 %17, label %18, label %19

18:                                               ; preds = %15
  store i1 true, ptr %2, align 1
  br label %28

19:                                               ; preds = %15
  %20 = load i32, ptr %3, align 4, !tbaa !7
  %21 = icmp eq i32 %20, 13
  br i1 %21, label %22, label %23

22:                                               ; preds = %19
  store i1 true, ptr %2, align 1
  br label %28

23:                                               ; preds = %19
  %24 = load i32, ptr %3, align 4, !tbaa !7
  %25 = icmp eq i32 %24, 32
  br i1 %25, label %26, label %27

26:                                               ; preds = %23
  store i1 true, ptr %2, align 1
  br label %28

27:                                               ; preds = %23
  store i1 false, ptr %2, align 1
  br label %28

28:                                               ; preds = %27, %26, %22, %18, %14, %10, %6
  %29 = load i1, ptr %2, align 1
  ret i1 %29
}

; Function Attrs: inlinehint nounwind uwtable
define internal zeroext i1 @gv_iscntrl(i32 noundef %0) #2 {
  %2 = alloca i1, align 1
  %3 = alloca i32, align 4
  store i32 %0, ptr %3, align 4, !tbaa !7
  %4 = load i32, ptr %3, align 4, !tbaa !7
  %5 = icmp sge i32 %4, 0
  br i1 %5, label %6, label %10

6:                                                ; preds = %1
  %7 = load i32, ptr %3, align 4, !tbaa !7
  %8 = icmp sle i32 %7, 31
  br i1 %8, label %9, label %10

9:                                                ; preds = %6
  store i1 true, ptr %2, align 1
  br label %15

10:                                               ; preds = %6, %1
  %11 = load i32, ptr %3, align 4, !tbaa !7
  %12 = icmp eq i32 %11, 127
  br i1 %12, label %13, label %14

13:                                               ; preds = %10
  store i1 true, ptr %2, align 1
  br label %15

14:                                               ; preds = %10
  store i1 false, ptr %2, align 1
  br label %15

15:                                               ; preds = %14, %13, %9
  %16 = load i1, ptr %2, align 1
  ret i1 %16
}

; Function Attrs: nounwind uwtable
define internal i32 @default_usererrf(ptr noundef %0) #0 {
  %2 = alloca i32, align 4
  %3 = alloca ptr, align 8
  %4 = alloca ptr, align 8
  %5 = alloca i32, align 4
  %6 = alloca i32, align 4
  %7 = alloca i32, align 4
  store ptr %0, ptr %3, align 8, !tbaa !9
  call void @llvm.lifetime.start.p0(i64 8, ptr %4) #14
  %8 = load ptr, ptr %3, align 8, !tbaa !9
  store ptr %8, ptr %4, align 8, !tbaa !9
  br label %9

9:                                                ; preds = %52, %1
  %10 = load ptr, ptr %4, align 8, !tbaa !9
  %11 = load i8, ptr %10, align 1, !tbaa !11
  %12 = sext i8 %11 to i32
  %13 = icmp ne i32 %12, 0
  br i1 %13, label %15, label %14

14:                                               ; preds = %9
  store i32 2, ptr %5, align 4
  br label %55

15:                                               ; preds = %9
  %16 = load ptr, ptr %4, align 8, !tbaa !9
  %17 = load i8, ptr %16, align 1, !tbaa !11
  %18 = sext i8 %17 to i32
  %19 = call zeroext i1 @gv_iscntrl(i32 noundef %18)
  br i1 %19, label %20, label %38

20:                                               ; preds = %15
  %21 = load ptr, ptr %4, align 8, !tbaa !9
  %22 = load i8, ptr %21, align 1, !tbaa !11
  %23 = sext i8 %22 to i32
  %24 = call zeroext i1 @gv_isspace(i32 noundef %23)
  br i1 %24, label %38, label %25

25:                                               ; preds = %20
  call void @llvm.lifetime.start.p0(i64 4, ptr %6) #14
  %26 = load ptr, ptr @stderr, align 8, !tbaa !16
  %27 = load ptr, ptr %4, align 8, !tbaa !9
  %28 = load i8, ptr %27, align 1, !tbaa !11
  %29 = sext i8 %28 to i32
  %30 = call i32 (ptr, ptr, ...) @fprintf(ptr noundef %26, ptr noundef @.str.8, i32 noundef %29) #14
  store i32 %30, ptr %6, align 4, !tbaa !7
  %31 = load i32, ptr %6, align 4, !tbaa !7
  %32 = icmp slt i32 %31, 0
  br i1 %32, label %33, label %35

33:                                               ; preds = %25
  %34 = load i32, ptr %6, align 4, !tbaa !7
  store i32 %34, ptr %2, align 4
  store i32 1, ptr %5, align 4
  br label %36

35:                                               ; preds = %25
  store i32 4, ptr %5, align 4
  br label %36

36:                                               ; preds = %35, %33
  call void @llvm.lifetime.end.p0(i64 4, ptr %6) #14
  %37 = load i32, ptr %5, align 4
  switch i32 %37, label %55 [
    i32 4, label %52
  ]

38:                                               ; preds = %20, %15
  call void @llvm.lifetime.start.p0(i64 4, ptr %7) #14
  %39 = load ptr, ptr %4, align 8, !tbaa !9
  %40 = load i8, ptr %39, align 1, !tbaa !11
  %41 = sext i8 %40 to i32
  %42 = load ptr, ptr @stderr, align 8, !tbaa !16
  %43 = call i32 @putc(i32 noundef %41, ptr noundef %42)
  store i32 %43, ptr %7, align 4, !tbaa !7
  %44 = load i32, ptr %7, align 4, !tbaa !7
  %45 = icmp slt i32 %44, 0
  br i1 %45, label %46, label %48

46:                                               ; preds = %38
  %47 = load i32, ptr %7, align 4, !tbaa !7
  store i32 %47, ptr %2, align 4
  store i32 1, ptr %5, align 4
  br label %49

48:                                               ; preds = %38
  store i32 0, ptr %5, align 4
  br label %49

49:                                               ; preds = %48, %46
  call void @llvm.lifetime.end.p0(i64 4, ptr %7) #14
  %50 = load i32, ptr %5, align 4
  switch i32 %50, label %55 [
    i32 0, label %51
  ]

51:                                               ; preds = %49
  br label %52

52:                                               ; preds = %51, %36
  %53 = load ptr, ptr %4, align 8, !tbaa !9
  %54 = getelementptr inbounds nuw i8, ptr %53, i32 1
  store ptr %54, ptr %4, align 8, !tbaa !9
  br label %9, !llvm.loop !22

55:                                               ; preds = %49, %36, %14
  call void @llvm.lifetime.end.p0(i64 8, ptr %4) #14
  %56 = load i32, ptr %5, align 4
  switch i32 %56, label %60 [
    i32 2, label %57
    i32 1, label %58
  ]

57:                                               ; preds = %55
  store i32 0, ptr %2, align 4
  br label %58

58:                                               ; preds = %57, %55
  %59 = load i32, ptr %2, align 4
  ret i32 %59

60:                                               ; preds = %55
  unreachable
}