; Function Attrs: nofree nounwind uwtable
define internal range(i32 -2147483648, 1) i32 @default_usererrf(ptr noundef readonly captures(none) %0) unnamed_addr #17 {
  %2 = load i8, ptr %0, align 1, !tbaa !9
  %.not24 = icmp eq i8 %2, 0
  br i1 %.not24, label %._crit_edge, label %.lr.ph

.lr.ph:                                           ; preds = %1, %13
  %3 = phi i8 [ %15, %13 ], [ %2, %1 ]
  %.01525 = phi ptr [ %14, %13 ], [ %0, %1 ]
  %4 = sext i8 %3 to i32
  %or.cond.i = icmp ult i8 %3, 32
  %5 = icmp eq i8 %3, 127
  %spec.select.i = or i1 %or.cond.i, %5
  br i1 %spec.select.i, label %6, label %gv_isspace.exit.thread

6:                                                ; preds = %.lr.ph
  switch i8 %3, label %gv_isspace.exit [
    i8 9, label %gv_isspace.exit.thread
    i8 10, label %gv_isspace.exit.thread
    i8 11, label %gv_isspace.exit.thread
    i8 12, label %gv_isspace.exit.thread
    i8 13, label %gv_isspace.exit.thread
    i8 32, label %gv_isspace.exit.thread
  ]

gv_isspace.exit:                                  ; preds = %6
  %7 = load ptr, ptr @stderr, align 8, !tbaa !10
  %8 = tail call i32 (ptr, ptr, ...) @fprintf(ptr noundef %7, ptr noundef nonnull @.str.8, i32 noundef %4) #20
  %9 = icmp sgt i32 %8, -1
  br i1 %9, label %13, label %._crit_edge

gv_isspace.exit.thread:                           ; preds = %6, %6, %6, %6, %6, %6, %.lr.ph
  %10 = load ptr, ptr @stderr, align 8, !tbaa !10
  %11 = tail call i32 @putc(i32 noundef %4, ptr noundef %10)
  %12 = icmp sgt i32 %11, -1
  br i1 %12, label %13, label %._crit_edge

13:                                               ; preds = %gv_isspace.exit.thread, %gv_isspace.exit
  %14 = getelementptr inbounds nuw i8, ptr %.01525, i64 1
  %15 = load i8, ptr %14, align 1, !tbaa !9
  %.not = icmp eq i8 %15, 0
  br i1 %.not, label %._crit_edge, label %.lr.ph, !llvm.loop !12

._crit_edge:                                      ; preds = %gv_isspace.exit.thread, %gv_isspace.exit, %13, %1
  %spec.select = phi i32 [ 0, %1 ], [ 0, %13 ], [ %8, %gv_isspace.exit ], [ %11, %gv_isspace.exit.thread ]
  ret i32 %spec.select
}